ccopy_reg
_reconstructor
p0
(csklearn.pipeline
Pipeline
p1
c__builtin__
object
p2
Ntp3
Rp4
(dp5
S'steps'
p6
(lp7
(S'f_selector'
p8
g0
(csklearn.feature_selection.univariate_selection
SelectKBest
p9
g2
Ntp10
Rp11
(dp12
S'k'
p13
S'all'
p14
sS'score_func'
p15
csklearn.feature_selection.univariate_selection
f_classif
p16
sbtp17
a(S'classifier'
p18
g0
(csklearn.tree.tree
DecisionTreeClassifier
p19
g2
Ntp20
Rp21
(dp22
S'splitter'
p23
S'best'
p24
sS'tree_'
p25
NsS'n_features_'
p26
NsS'n_outputs_'
p27
NsS'n_classes_'
p28
NsS'random_state'
p29
NsS'classes_'
p30
NsS'max_features_'
p31
NsS'min_samples_leaf'
p32
I2
sS'max_features'
p33
NsS'min_weight_fraction_leaf'
p34
F0.0
sS'criterion'
p35
S'entropy'
p36
sS'max_leaf_nodes'
p37
NsS'min_samples_split'
p38
I6
sS'max_depth'
p39
NsS'class_weight'
p40
Nsbtp41
asS'named_steps'
p42
(dp43
g8
g11
sg18
g21
ssb.