(lp0
S'poi'
p1
aS'bonus'
p2
aS'deferral_payments'
p3
aS'deferred_income'
p4
aS'exercised_stock_options'
p5
aS'expenses'
p6
aS'long_term_incentive'
p7
aS'other'
p8
aS'restricted_stock'
p9
aS'salary'
p10
aS'total_payments'
p11
aS'total_stock_value'
p12
aS'shared_receipt_with_poi'
p13
aS'from_messages'
p14
aS'from_poi_to_this_person'
p15
aS'from_this_person_to_poi'
p16
aS'to_messages'
p17
aS'exercised_stocks_percentage'
p18
aS'percentage_messages_from_poi'
p19
aS'percentage_messages_to_poi'
p20
a.